target datalayout = "e-m:e-p270:32:32-p271:32:32-p272:64:64-i64:64-i128:128-f80:128-n8:16:32:64-S128"
target triple = "x86_64-pc-linux-gnu"

%struct.SurfaceDataRasInfo = type { %struct.SurfaceDataBounds, ptr, i32, i32, i32, i32, ptr, ptr, ptr, ptr, ptr, ptr, i32, %union.anon.0 }
%struct.SurfaceDataBounds = type { i32, i32, i32, i32 }
%union.anon.0 = type { ptr, [56 x i8] }

; Function Attrs: nounwind uwtable
define hidden void @IntArgbBmToUshortIndexedXparBgCopy(ptr noundef %0, ptr noundef %1, i32 noundef %2, i32 noundef %3, i32 noundef %4, ptr noundef %5, ptr noundef %6, ptr noundef %7, ptr noundef %8) #0 {
  %10 = alloca ptr, align 8
  %11 = alloca ptr, align 8
  %12 = alloca i32, align 4
  %13 = alloca i32, align 4
  %14 = alloca i32, align 4
  %15 = alloca ptr, align 8
  %16 = alloca ptr, align 8
  %17 = alloca ptr, align 8
  %18 = alloca ptr, align 8
  %19 = alloca i32, align 4
  %20 = alloca i32, align 4
  %21 = alloca ptr, align 8
  %22 = alloca ptr, align 8
  %23 = alloca ptr, align 8
  %24 = alloca ptr, align 8
  %25 = alloca ptr, align 8
  %26 = alloca ptr, align 8
  %27 = alloca i32, align 4
  %28 = alloca i32, align 4
  %29 = alloca i32, align 4
  %30 = alloca i32, align 4
  %31 = alloca i32, align 4
  %32 = alloca i32, align 4
  %33 = alloca i32, align 4
  %34 = alloca i32, align 4
  store ptr %0, ptr %10, align 8
  store ptr %1, ptr %11, align 8
  store i32 %2, ptr %12, align 4
  store i32 %3, ptr %13, align 4
  store i32 %4, ptr %14, align 4
  store ptr %5, ptr %15, align 8
  store ptr %6, ptr %16, align 8
  store ptr %7, ptr %17, align 8
  store ptr %8, ptr %18, align 8
  br label %35

35:                                               ; preds = %9
  %36 = load ptr, ptr %10, align 8
  store ptr %36, ptr %25, align 8
  %37 = load ptr, ptr %11, align 8
  store ptr %37, ptr %26, align 8
  %38 = load ptr, ptr %15, align 8
  %39 = getelementptr inbounds %struct.SurfaceDataRasInfo, ptr %38, i32 0, i32 4
  %40 = load i32, ptr %39, align 8
  store i32 %40, ptr %27, align 4
  %41 = load ptr, ptr %16, align 8
  %42 = getelementptr inbounds %struct.SurfaceDataRasInfo, ptr %41, i32 0, i32 4
  %43 = load i32, ptr %42, align 8
  store i32 %43, ptr %28, align 4
  br label %44

44:                                               ; preds = %35
  br label %45

45:                                               ; preds = %44
  %46 = load ptr, ptr %16, align 8
  %47 = getelementptr inbounds %struct.SurfaceDataRasInfo, ptr %46, i32 0, i32 0
  %48 = getelementptr inbounds %struct.SurfaceDataBounds, ptr %47, i32 0, i32 1
  %49 = load i32, ptr %48, align 4
  %50 = and i32 %49, 7
  %51 = shl i32 %50, 3
  store i32 %51, ptr %20, align 4
  br label %52

52:                                               ; preds = %45
  %53 = load ptr, ptr %16, align 8
  %54 = getelementptr inbounds %struct.SurfaceDataRasInfo, ptr %53, i32 0, i32 7
  %55 = load ptr, ptr %54, align 8
  store ptr %55, ptr %24, align 8
  br label %56

56:                                               ; preds = %52
  %57 = load i32, ptr %12, align 4
  %58 = mul i32 %57, 4
  %59 = load i32, ptr %27, align 4
  %60 = sub i32 %59, %58
  store i32 %60, ptr %27, align 4
  %61 = load i32, ptr %12, align 4
  %62 = mul i32 %61, 2
  %63 = load i32, ptr %28, align 4
  %64 = sub i32 %63, %62
  store i32 %64, ptr %28, align 4
  br label %65

65:                                               ; preds = %245, %56
  %66 = load i32, ptr %12, align 4
  store i32 %66, ptr %29, align 4
  br label %67

67:                                               ; preds = %65
  %68 = load ptr, ptr %16, align 8
  %69 = getelementptr inbounds %struct.SurfaceDataRasInfo, ptr %68, i32 0, i32 8
  %70 = load ptr, ptr %69, align 8
  %71 = load i32, ptr %20, align 4
  %72 = sext i32 %71 to i64
  %73 = getelementptr inbounds i8, ptr %70, i64 %72
  store ptr %73, ptr %21, align 8
  %74 = load ptr, ptr %16, align 8
  %75 = getelementptr inbounds %struct.SurfaceDataRasInfo, ptr %74, i32 0, i32 9
  %76 = load ptr, ptr %75, align 8
  %77 = load i32, ptr %20, align 4
  %78 = sext i32 %77 to i64
  %79 = getelementptr inbounds i8, ptr %76, i64 %78
  store ptr %79, ptr %22, align 8
  %80 = load ptr, ptr %16, align 8
  %81 = getelementptr inbounds %struct.SurfaceDataRasInfo, ptr %80, i32 0, i32 10
  %82 = load ptr, ptr %81, align 8
  %83 = load i32, ptr %20, align 4
  %84 = sext i32 %83 to i64
  %85 = getelementptr inbounds i8, ptr %82, i64 %84
  store ptr %85, ptr %23, align 8
  %86 = load ptr, ptr %16, align 8
  %87 = getelementptr inbounds %struct.SurfaceDataRasInfo, ptr %86, i32 0, i32 0
  %88 = getelementptr inbounds %struct.SurfaceDataBounds, ptr %87, i32 0, i32 0
  %89 = load i32, ptr %88, align 8
  %90 = and i32 %89, 7
  store i32 %90, ptr %19, align 4
  br label %91

91:                                               ; preds = %67
  br label %92

92:                                               ; preds = %225, %91
  br label %93

93:                                               ; preds = %92
  %94 = load ptr, ptr %25, align 8
  %95 = getelementptr inbounds i32, ptr %94, i64 0
  %96 = load i32, ptr %95, align 4
  store i32 %96, ptr %30, align 4
  %97 = load i32, ptr %30, align 4
  %98 = ashr i32 %97, 24
  %99 = icmp eq i32 %98, 0
  br i1 %99, label %100, label %105

100:                                              ; preds = %93
  %101 = load i32, ptr %14, align 4
  %102 = trunc i32 %101 to i16
  %103 = load ptr, ptr %26, align 8
  %104 = getelementptr inbounds i16, ptr %103, i64 0
  store i16 %102, ptr %104, align 2
  br label %212

105:                                              ; preds = %93
  %106 = load i32, ptr %30, align 4
  store i32 %106, ptr %31, align 4
  br label %107

107:                                              ; preds = %105
  br label %108

108:                                              ; preds = %107
  %109 = load i32, ptr %31, align 4
  %110 = and i32 %109, 255
  store i32 %110, ptr %34, align 4
  %111 = load i32, ptr %31, align 4
  %112 = ashr i32 %111, 8
  %113 = and i32 %112, 255
  store i32 %113, ptr %33, align 4
  %114 = load i32, ptr %31, align 4
  %115 = ashr i32 %114, 16
  %116 = and i32 %115, 255
  store i32 %116, ptr %32, align 4
  br label %117

117:                                              ; preds = %108
  br label %118

118:                                              ; preds = %117
  %119 = load ptr, ptr %21, align 8
  %120 = load i32, ptr %19, align 4
  %121 = sext i32 %120 to i64
  %122 = getelementptr inbounds i8, ptr %119, i64 %121
  %123 = load i8, ptr %122, align 1
  %124 = sext i8 %123 to i32
  %125 = load i32, ptr %32, align 4
  %126 = add nsw i32 %125, %124
  store i32 %126, ptr %32, align 4
  %127 = load ptr, ptr %22, align 8
  %128 = load i32, ptr %19, align 4
  %129 = sext i32 %128 to i64
  %130 = getelementptr inbounds i8, ptr %127, i64 %129
  %131 = load i8, ptr %130, align 1
  %132 = sext i8 %131 to i32
  %133 = load i32, ptr %33, align 4
  %134 = add nsw i32 %133, %132
  store i32 %134, ptr %33, align 4
  %135 = load ptr, ptr %23, align 8
  %136 = load i32, ptr %19, align 4
  %137 = sext i32 %136 to i64
  %138 = getelementptr inbounds i8, ptr %135, i64 %137
  %139 = load i8, ptr %138, align 1
  %140 = sext i8 %139 to i32
  %141 = load i32, ptr %34, align 4
  %142 = add nsw i32 %141, %140
  store i32 %142, ptr %34, align 4
  br label %143

143:                                              ; preds = %118
  %144 = load i32, ptr %32, align 4
  %145 = load i32, ptr %33, align 4
  %146 = or i32 %144, %145
  %147 = load i32, ptr %34, align 4
  %148 = or i32 %146, %147
  %149 = ashr i32 %148, 8
  %150 = icmp ne i32 %149, 0
  br i1 %150, label %151, label %185

151:                                              ; preds = %143
  br label %152

152:                                              ; preds = %151
  %153 = load i32, ptr %32, align 4
  %154 = ashr i32 %153, 8
  %155 = icmp ne i32 %154, 0
  br i1 %155, label %156, label %161

156:                                              ; preds = %152
  %157 = load i32, ptr %32, align 4
  %158 = ashr i32 %157, 31
  %159 = xor i32 %158, -1
  %160 = and i32 %159, 255
  store i32 %160, ptr %32, align 4
  br label %161

161:                                              ; preds = %156, %152
  br label %162

162:                                              ; preds = %161
  br label %163

163:                                              ; preds = %162
  %164 = load i32, ptr %33, align 4
  %165 = ashr i32 %164, 8
  %166 = icmp ne i32 %165, 0
  br i1 %166, label %167, label %172

167:                                              ; preds = %163
  %168 = load i32, ptr %33, align 4
  %169 = ashr i32 %168, 31
  %170 = xor i32 %169, -1
  %171 = and i32 %170, 255
  store i32 %171, ptr %33, align 4
  br label %172

172:                                              ; preds = %167, %163
  br label %173

173:                                              ; preds = %172
  br label %174

174:                                              ; preds = %173
  %175 = load i32, ptr %34, align 4
  %176 = ashr i32 %175, 8
  %177 = icmp ne i32 %176, 0
  br i1 %177, label %178, label %183

178:                                              ; preds = %174
  %179 = load i32, ptr %34, align 4
  %180 = ashr i32 %179, 31
  %181 = xor i32 %180, -1
  %182 = and i32 %181, 255
  store i32 %182, ptr %34, align 4
  br label %183

183:                                              ; preds = %178, %174
  br label %184

184:                                              ; preds = %183
  br label %185

185:                                              ; preds = %184, %143
  br label %186

186:                                              ; preds = %185
  %187 = load ptr, ptr %24, align 8
  %188 = load i32, ptr %32, align 4
  %189 = trunc i32 %188 to i8
  %190 = zext i8 %189 to i32
  %191 = ashr i32 %190, 3
  %192 = shl i32 %191, 10
  %193 = load i32, ptr %33, align 4
  %194 = trunc i32 %193 to i8
  %195 = zext i8 %194 to i32
  %196 = ashr i32 %195, 3
  %197 = shl i32 %196, 5
  %198 = add nsw i32 %192, %197
  %199 = load i32, ptr %34, align 4
  %200 = trunc i32 %199 to i8
  %201 = zext i8 %200 to i32
  %202 = ashr i32 %201, 3
  %203 = add nsw i32 %198, %202
  %204 = sext i32 %203 to i64
  %205 = getelementptr inbounds i8, ptr %187, i64 %204
  %206 = load i8, ptr %205, align 1
  %207 = zext i8 %206 to i16
  %208 = load ptr, ptr %26, align 8
  %209 = getelementptr inbounds i16, ptr %208, i64 0
  store i16 %207, ptr %209, align 2
  br label %210

210:                                              ; preds = %186
  br label %211

211:                                              ; preds = %210
  br label %212

212:                                              ; preds = %211, %100
  br label %213

213:                                              ; preds = %212
  %214 = load ptr, ptr %25, align 8
  %215 = ptrtoint ptr %214 to i64
  %216 = add nsw i64 %215, 4
  %217 = inttoptr i64 %216 to ptr
  store ptr %217, ptr %25, align 8
  %218 = load ptr, ptr %26, align 8
  %219 = ptrtoint ptr %218 to i64
  %220 = add nsw i64 %219, 2
  %221 = inttoptr i64 %220 to ptr
  store ptr %221, ptr %26, align 8
  %222 = load i32, ptr %19, align 4
  %223 = add nsw i32 %222, 1
  %224 = and i32 %223, 7
  store i32 %224, ptr %19, align 4
  br label %225

225:                                              ; preds = %213
  %226 = load i32, ptr %29, align 4
  %227 = add i32 %226, -1
  store i32 %227, ptr %29, align 4
  %228 = icmp ugt i32 %227, 0
  br i1 %228, label %92, label %229, !llvm.loop !44

229:                                              ; preds = %225
  %230 = load ptr, ptr %25, align 8
  %231 = ptrtoint ptr %230 to i64
  %232 = load i32, ptr %27, align 4
  %233 = sext i32 %232 to i64
  %234 = add nsw i64 %231, %233
  %235 = inttoptr i64 %234 to ptr
  store ptr %235, ptr %25, align 8
  %236 = load ptr, ptr %26, align 8
  %237 = ptrtoint ptr %236 to i64
  %238 = load i32, ptr %28, align 4
  %239 = sext i32 %238 to i64
  %240 = add nsw i64 %237, %239
  %241 = inttoptr i64 %240 to ptr
  store ptr %241, ptr %26, align 8
  %242 = load i32, ptr %20, align 4
  %243 = add nsw i32 %242, 8
  %244 = and i32 %243, 56
  store i32 %244, ptr %20, align 4
  br label %245

245:                                              ; preds = %229
  %246 = load i32, ptr %13, align 4
  %247 = add i32 %246, -1
  store i32 %247, ptr %13, align 4
  %248 = icmp ugt i32 %247, 0
  br i1 %248, label %65, label %249, !llvm.loop !45

249:                                              ; preds = %245
  br label %250

250:                                              ; preds = %249
  ret void
}