; Function Attrs: nofree norecurse nosync nounwind memory(readwrite, inaccessiblemem: none) uwtable
define hidden void @IntArgbBmToUshortIndexedXparBgCopy(ptr noundef %0, ptr noundef %1, i32 noundef %2, i32 noundef %3, i32 noundef %4, ptr nocapture noundef readonly %5, ptr nocapture noundef readonly %6, ptr nocapture readnone %7, ptr nocapture readnone %8) #0 {
  %10 = getelementptr inbounds i8, ptr %5, i64 32
  %11 = load i32, ptr %10, align 8
  %12 = getelementptr inbounds i8, ptr %6, i64 32
  %13 = load i32, ptr %12, align 8
  %14 = getelementptr inbounds i8, ptr %6, i64 4
  %15 = load i32, ptr %14, align 4
  %16 = shl i32 %15, 3
  %17 = getelementptr inbounds i8, ptr %6, i64 48
  %18 = load ptr, ptr %17, align 8
  %19 = shl i32 %2, 2
  %20 = sub i32 %11, %19
  %21 = shl i32 %2, 1
  %22 = sub i32 %13, %21
  %23 = sext i32 %20 to i64
  %24 = getelementptr inbounds i8, ptr %6, i64 56
  %25 = getelementptr inbounds i8, ptr %6, i64 64
  %26 = getelementptr inbounds i8, ptr %6, i64 72
  %27 = trunc i32 %4 to i16
  %28 = sext i32 %22 to i64
  br label %29

29:                                               ; preds = %90, %9
  %.068.in = phi i32 [ %16, %9 ], [ %95, %90 ]
  %.066 = phi ptr [ %0, %9 ], [ %92, %90 ]
  %.064 = phi ptr [ %1, %9 ], [ %94, %90 ]
  %.061 = phi i32 [ %3, %9 ], [ %96, %90 ]
  %.068 = and i32 %.068.in, 56
  %30 = load ptr, ptr %24, align 8
  %31 = zext nneg i32 %.068 to i64
  %32 = getelementptr inbounds i8, ptr %30, i64 %31
  %33 = load ptr, ptr %25, align 8
  %34 = getelementptr inbounds i8, ptr %33, i64 %31
  %35 = load ptr, ptr %26, align 8
  %36 = getelementptr inbounds i8, ptr %35, i64 %31
  %37 = load i32, ptr %6, align 8
  br label %38

38:                                               ; preds = %81, %29
  %.167 = phi ptr [ %.066, %29 ], [ %84, %81 ]
  %.165 = phi ptr [ %.064, %29 ], [ %87, %81 ]
  %.063 = phi i32 [ %2, %29 ], [ %89, %81 ]
  %.062.in = phi i32 [ %37, %29 ], [ %88, %81 ]
  %.062 = and i32 %.062.in, 7
  %39 = load i32, ptr %.167, align 4
  %40 = icmp ult i32 %39, 16777216
  br i1 %40, label %81, label %41

41:                                               ; preds = %38
  %42 = and i32 %39, 255
  %43 = lshr i32 %39, 8
  %44 = and i32 %43, 255
  %45 = lshr i32 %39, 16
  %46 = and i32 %45, 255
  %47 = zext nneg i32 %.062 to i64
  %48 = getelementptr inbounds i8, ptr %32, i64 %47
  %49 = load i8, ptr %48, align 1
  %50 = sext i8 %49 to i32
  %51 = add nsw i32 %46, %50
  %52 = getelementptr inbounds i8, ptr %34, i64 %47
  %53 = load i8, ptr %52, align 1
  %54 = sext i8 %53 to i32
  %55 = add nsw i32 %44, %54
  %56 = getelementptr inbounds i8, ptr %36, i64 %47
  %57 = load i8, ptr %56, align 1
  %58 = sext i8 %57 to i32
  %59 = add nsw i32 %42, %58
  %60 = or i32 %55, %51
  %61 = or i32 %60, %59
  %.not = icmp ult i32 %61, 256
  br i1 %.not, label %69, label %62

62:                                               ; preds = %41
  %63 = tail call i32 @llvm.smax.i32(i32 %51, i32 0)
  %64 = tail call i32 @llvm.umin.i32(i32 %63, i32 255)
  %65 = tail call i32 @llvm.smax.i32(i32 %55, i32 0)
  %66 = tail call i32 @llvm.umin.i32(i32 %65, i32 255)
  %.not74 = icmp ult i32 %59, 256
  br i1 %.not74, label %69, label %67

67:                                               ; preds = %62
  %isnotneg.inv75 = icmp slt i32 %59, 0
  %68 = select i1 %isnotneg.inv75, i32 0, i32 255
  br label %69

69:                                               ; preds = %41, %62, %67
  %.160 = phi i32 [ %64, %67 ], [ %64, %62 ], [ %51, %41 ]
  %.1 = phi i32 [ %66, %67 ], [ %66, %62 ], [ %55, %41 ]
  %.0 = phi i32 [ %68, %67 ], [ %59, %62 ], [ %59, %41 ]
  %70 = shl nsw i32 %.160, 7
  %71 = and i32 %70, 31744
  %72 = shl nsw i32 %.1, 2
  %73 = and i32 %72, 992
  %74 = or disjoint i32 %73, %71
  %75 = lshr i32 %.0, 3
  %76 = or disjoint i32 %74, %75
  %77 = zext nneg i32 %76 to i64
  %78 = getelementptr inbounds i8, ptr %18, i64 %77
  %79 = load i8, ptr %78, align 1
  %80 = zext i8 %79 to i16
  br label %81

81:                                               ; preds = %38, %69
  %storemerge = phi i16 [ %80, %69 ], [ %27, %38 ]
  store i16 %storemerge, ptr %.165, align 2
  %82 = ptrtoint ptr %.167 to i64
  %83 = add nsw i64 %82, 4
  %84 = inttoptr i64 %83 to ptr
  %85 = ptrtoint ptr %.165 to i64
  %86 = add nsw i64 %85, 2
  %87 = inttoptr i64 %86 to ptr
  %88 = add nuw nsw i32 %.062, 1
  %89 = add i32 %.063, -1
  %.not76 = icmp eq i32 %89, 0
  br i1 %.not76, label %90, label %38, !llvm.loop !44

90:                                               ; preds = %81
  %91 = add nsw i64 %83, %23
  %92 = inttoptr i64 %91 to ptr
  %93 = add nsw i64 %86, %28
  %94 = inttoptr i64 %93 to ptr
  %95 = add nuw nsw i32 %.068, 8
  %96 = add i32 %.061, -1
  %.not77 = icmp eq i32 %96, 0
  br i1 %.not77, label %97, label %29, !llvm.loop !45

97:                                               ; preds = %90
  ret void
}